target datalayout = "e-m:e-p270:32:32-p271:32:32-p272:64:64-i64:64-i128:128-f80:128-n8:16:32:64-S128"
target triple = "x86_64-unknown-linux-gnu"

%struct.ctl_named_node_s = type { %struct.ctl_node_s, ptr, i64, ptr, ptr }
%struct.ctl_node_s = type { i8 }
%struct.ctl_indexed_node_s = type { %struct.ctl_node_s, ptr }

; Function Attrs: nounwind uwtable
define internal ptr @ctl_indexed_node(ptr noundef %node) #0 {
entry:
  %node.addr = alloca ptr, align 8
  store ptr %node, ptr %node.addr, align 8
  %0 = load ptr, ptr %node.addr, align 8
  %named = getelementptr inbounds %struct.ctl_node_s, ptr %0, i32 0, i32 0
  %1 = load i8, ptr %named, align 1
  %tobool = trunc i8 %1 to i1
  br i1 %tobool, label %cond.false, label %cond.true

cond.true:                                        ; preds = %entry
  %2 = load ptr, ptr %node.addr, align 8
  br label %cond.end

cond.false:                                       ; preds = %entry
  br label %cond.end

cond.end:                                         ; preds = %cond.false, %cond.true
  %cond = phi ptr [ %2, %cond.true ], [ null, %cond.false ]
  ret ptr %cond
}

; Function Attrs: nounwind uwtable
define internal ptr @ctl_named_children(ptr noundef %node, i64 noundef %index) #0 {
entry:
  %node.addr = alloca ptr, align 8
  %index.addr = alloca i64, align 8
  %children = alloca ptr, align 8
  store ptr %node, ptr %node.addr, align 8
  store i64 %index, ptr %index.addr, align 8
  %0 = load ptr, ptr %node.addr, align 8
  %children1 = getelementptr inbounds %struct.ctl_named_node_s, ptr %0, i32 0, i32 3
  %1 = load ptr, ptr %children1, align 8
  %call = call ptr @ctl_named_node(ptr noundef %1)
  store ptr %call, ptr %children, align 8
  %2 = load ptr, ptr %children, align 8
  %tobool = icmp ne ptr %2, null
  br i1 %tobool, label %cond.true, label %cond.false

cond.true:                                        ; preds = %entry
  %3 = load ptr, ptr %children, align 8
  %4 = load i64, ptr %index.addr, align 8
  %arrayidx = getelementptr inbounds %struct.ctl_named_node_s, ptr %3, i64 %4
  br label %cond.end

cond.false:                                       ; preds = %entry
  br label %cond.end

cond.end:                                         ; preds = %cond.false, %cond.true
  %cond = phi ptr [ %arrayidx, %cond.true ], [ null, %cond.false ]
  ret ptr %cond
}

; Function Attrs: nounwind uwtable
define internal ptr @ctl_named_node(ptr noundef %node) #0 {
entry:
  %node.addr = alloca ptr, align 8
  store ptr %node, ptr %node.addr, align 8
  %0 = load ptr, ptr %node.addr, align 8
  %named = getelementptr inbounds %struct.ctl_node_s, ptr %0, i32 0, i32 0
  %1 = load i8, ptr %named, align 1
  %tobool = trunc i8 %1 to i1
  br i1 %tobool, label %cond.true, label %cond.false

cond.true:                                        ; preds = %entry
  %2 = load ptr, ptr %node.addr, align 8
  br label %cond.end

cond.false:                                       ; preds = %entry
  br label %cond.end

cond.end:                                         ; preds = %cond.false, %cond.true
  %cond = phi ptr [ %2, %cond.true ], [ null, %cond.false ]
  ret ptr %cond
}

; Function Attrs: nounwind uwtable
define internal i32 @ctl_lookup(ptr noundef %tsdn, ptr noundef %starting_node, ptr noundef %name, ptr noundef %ending_nodep, ptr noundef %mibp, ptr noundef %depthp) #0 {
entry:
  %tsdn.addr = alloca ptr, align 8
  %starting_node.addr = alloca ptr, align 8
  %name.addr = alloca ptr, align 8
  %ending_nodep.addr = alloca ptr, align 8
  %mibp.addr = alloca ptr, align 8
  %depthp.addr = alloca ptr, align 8
  %ret = alloca i32, align 4
  %elm = alloca ptr, align 8
  %tdot = alloca ptr, align 8
  %dot = alloca ptr, align 8
  %elen = alloca i64, align 8
  %i = alloca i64, align 8
  %j = alloca i64, align 8
  %node = alloca ptr, align 8
  %pnode = alloca ptr, align 8
  %child = alloca ptr, align 8
  %index = alloca i64, align 8
  %inode = alloca ptr, align 8
  store ptr %tsdn, ptr %tsdn.addr, align 8
  store ptr %starting_node, ptr %starting_node.addr, align 8
  store ptr %name, ptr %name.addr, align 8
  store ptr %ending_nodep, ptr %ending_nodep.addr, align 8
  store ptr %mibp, ptr %mibp.addr, align 8
  store ptr %depthp, ptr %depthp.addr, align 8
  %0 = load ptr, ptr %name.addr, align 8
  store ptr %0, ptr %elm, align 8
  %1 = load ptr, ptr %elm, align 8
  %call = call ptr @strchr(ptr noundef %1, i32 noundef 46) #9
  store ptr %call, ptr %tdot, align 8
  %cmp = icmp ne ptr %call, null
  br i1 %cmp, label %cond.true, label %cond.false

cond.true:                                        ; preds = %entry
  %2 = load ptr, ptr %tdot, align 8
  br label %cond.end

cond.false:                                       ; preds = %entry
  %3 = load ptr, ptr %elm, align 8
  %call1 = call ptr @strchr(ptr noundef %3, i32 noundef 0) #9
  br label %cond.end

cond.end:                                         ; preds = %cond.false, %cond.true
  %cond = phi ptr [ %2, %cond.true ], [ %call1, %cond.false ]
  store ptr %cond, ptr %dot, align 8
  %4 = load ptr, ptr %dot, align 8
  %5 = ptrtoint ptr %4 to i64
  %6 = load ptr, ptr %elm, align 8
  %7 = ptrtoint ptr %6 to i64
  %sub = sub i64 %5, %7
  store i64 %sub, ptr %elen, align 8
  %8 = load i64, ptr %elen, align 8
  %cmp2 = icmp eq i64 %8, 0
  br i1 %cmp2, label %if.then, label %if.end

if.then:                                          ; preds = %cond.end
  store i32 2, ptr %ret, align 4
  br label %label_return

if.end:                                           ; preds = %cond.end
  %9 = load ptr, ptr %starting_node.addr, align 8
  store ptr %9, ptr %node, align 8
  store i64 0, ptr %i, align 8
  br label %for.cond

for.cond:                                         ; preds = %for.inc59, %if.end
  %10 = load i64, ptr %i, align 8
  %11 = load ptr, ptr %depthp.addr, align 8
  %12 = load i64, ptr %11, align 8
  %cmp3 = icmp ult i64 %10, %12
  br i1 %cmp3, label %for.body, label %for.end61

for.body:                                         ; preds = %for.cond
  br label %do.body

do.body:                                          ; preds = %for.body
  br label %do.end

do.end:                                           ; preds = %do.body
  br label %do.body4

do.body4:                                         ; preds = %do.end
  br label %do.end5

do.end5:                                          ; preds = %do.body4
  %13 = load ptr, ptr %node, align 8
  %children = getelementptr inbounds %struct.ctl_named_node_s, ptr %13, i32 0, i32 3
  %14 = load ptr, ptr %children, align 8
  %call6 = call ptr @ctl_named_node(ptr noundef %14)
  %cmp7 = icmp ne ptr %call6, null
  br i1 %cmp7, label %if.then8, label %if.else

if.then8:                                         ; preds = %do.end5
  %15 = load ptr, ptr %node, align 8
  store ptr %15, ptr %pnode, align 8
  store i64 0, ptr %j, align 8
  br label %for.cond9

for.cond9:                                        ; preds = %for.inc, %if.then8
  %16 = load i64, ptr %j, align 8
  %17 = load ptr, ptr %node, align 8
  %nchildren = getelementptr inbounds %struct.ctl_named_node_s, ptr %17, i32 0, i32 2
  %18 = load i64, ptr %nchildren, align 8
  %cmp10 = icmp ult i64 %16, %18
  br i1 %cmp10, label %for.body11, label %for.end

for.body11:                                       ; preds = %for.cond9
  %19 = load ptr, ptr %node, align 8
  %20 = load i64, ptr %j, align 8
  %call12 = call ptr @ctl_named_children(ptr noundef %19, i64 noundef %20)
  store ptr %call12, ptr %child, align 8
  %21 = load ptr, ptr %child, align 8
  %name13 = getelementptr inbounds %struct.ctl_named_node_s, ptr %21, i32 0, i32 1
  %22 = load ptr, ptr %name13, align 8
  %call14 = call i64 @strlen(ptr noundef %22) #9
  %23 = load i64, ptr %elen, align 8
  %cmp15 = icmp eq i64 %call14, %23
  br i1 %cmp15, label %land.lhs.true, label %if.end20

land.lhs.true:                                    ; preds = %for.body11
  %24 = load ptr, ptr %elm, align 8
  %25 = load ptr, ptr %child, align 8
  %name16 = getelementptr inbounds %struct.ctl_named_node_s, ptr %25, i32 0, i32 1
  %26 = load ptr, ptr %name16, align 8
  %27 = load i64, ptr %elen, align 8
  %call17 = call i32 @strncmp(ptr noundef %24, ptr noundef %26, i64 noundef %27) #9
  %cmp18 = icmp eq i32 %call17, 0
  br i1 %cmp18, label %if.then19, label %if.end20

if.then19:                                        ; preds = %land.lhs.true
  %28 = load ptr, ptr %child, align 8
  store ptr %28, ptr %node, align 8
  %29 = load i64, ptr %j, align 8
  %30 = load ptr, ptr %mibp.addr, align 8
  %31 = load i64, ptr %i, align 8
  %arrayidx = getelementptr inbounds i64, ptr %30, i64 %31
  store i64 %29, ptr %arrayidx, align 8
  br label %for.end

if.end20:                                         ; preds = %land.lhs.true, %for.body11
  br label %for.inc

for.inc:                                          ; preds = %if.end20
  %32 = load i64, ptr %j, align 8
  %inc = add i64 %32, 1
  store i64 %inc, ptr %j, align 8
  br label %for.cond9, !llvm.loop !7

for.end:                                          ; preds = %if.then19, %for.cond9
  %33 = load ptr, ptr %node, align 8
  %34 = load ptr, ptr %pnode, align 8
  %cmp21 = icmp eq ptr %33, %34
  br i1 %cmp21, label %if.then22, label %if.end23

if.then22:                                        ; preds = %for.end
  store i32 2, ptr %ret, align 4
  br label %label_return

if.end23:                                         ; preds = %for.end
  br label %if.end37

if.else:                                          ; preds = %do.end5
  %35 = load ptr, ptr %elm, align 8
  %call24 = call i64 @malloc_strtoumax(ptr noundef %35, ptr noundef null, i32 noundef 10)
  store i64 %call24, ptr %index, align 8
  %36 = load i64, ptr %index, align 8
  %cmp25 = icmp eq i64 %36, -1
  br i1 %cmp25, label %if.then27, label %lor.lhs.false

lor.lhs.false:                                    ; preds = %if.else
  %37 = load i64, ptr %index, align 8
  %cmp26 = icmp ugt i64 %37, -1
  br i1 %cmp26, label %if.then27, label %if.end28

if.then27:                                        ; preds = %lor.lhs.false, %if.else
  store i32 2, ptr %ret, align 4
  br label %label_return

if.end28:                                         ; preds = %lor.lhs.false
  %38 = load ptr, ptr %node, align 8
  %children29 = getelementptr inbounds %struct.ctl_named_node_s, ptr %38, i32 0, i32 3
  %39 = load ptr, ptr %children29, align 8
  %call30 = call ptr @ctl_indexed_node(ptr noundef %39)
  store ptr %call30, ptr %inode, align 8
  %40 = load ptr, ptr %inode, align 8
  %index31 = getelementptr inbounds %struct.ctl_indexed_node_s, ptr %40, i32 0, i32 1
  %41 = load ptr, ptr %index31, align 8
  %42 = load ptr, ptr %tsdn.addr, align 8
  %43 = load ptr, ptr %mibp.addr, align 8
  %44 = load ptr, ptr %depthp.addr, align 8
  %45 = load i64, ptr %44, align 8
  %46 = load i64, ptr %index, align 8
  %call32 = call ptr %41(ptr noundef %42, ptr noundef %43, i64 noundef %45, i64 noundef %46)
  store ptr %call32, ptr %node, align 8
  %47 = load ptr, ptr %node, align 8
  %cmp33 = icmp eq ptr %47, null
  br i1 %cmp33, label %if.then34, label %if.end35

if.then34:                                        ; preds = %if.end28
  store i32 2, ptr %ret, align 4
  br label %label_return

if.end35:                                         ; preds = %if.end28
  %48 = load i64, ptr %index, align 8
  %49 = load ptr, ptr %mibp.addr, align 8
  %50 = load i64, ptr %i, align 8
  %arrayidx36 = getelementptr inbounds i64, ptr %49, i64 %50
  store i64 %48, ptr %arrayidx36, align 8
  br label %if.end37

if.end37:                                         ; preds = %if.end35, %if.end23
  %51 = load ptr, ptr %node, align 8
  %ctl = getelementptr inbounds %struct.ctl_named_node_s, ptr %51, i32 0, i32 4
  %52 = load ptr, ptr %ctl, align 8
  %cmp38 = icmp ne ptr %52, null
  br i1 %cmp38, label %if.then42, label %lor.lhs.false39

lor.lhs.false39:                                  ; preds = %if.end37
  %53 = load ptr, ptr %dot, align 8
  %54 = load i8, ptr %53, align 1
  %conv = sext i8 %54 to i32
  %cmp40 = icmp eq i32 %conv, 0
  br i1 %cmp40, label %if.then42, label %if.end48

if.then42:                                        ; preds = %lor.lhs.false39, %if.end37
  %55 = load ptr, ptr %dot, align 8
  %56 = load i8, ptr %55, align 1
  %conv43 = sext i8 %56 to i32
  %cmp44 = icmp ne i32 %conv43, 0
  br i1 %cmp44, label %if.then46, label %if.end47

if.then46:                                        ; preds = %if.then42
  store i32 2, ptr %ret, align 4
  br label %label_return

if.end47:                                         ; preds = %if.then42
  %57 = load i64, ptr %i, align 8
  %add = add i64 %57, 1
  %58 = load ptr, ptr %depthp.addr, align 8
  store i64 %add, ptr %58, align 8
  br label %for.end61

if.end48:                                         ; preds = %lor.lhs.false39
  %59 = load ptr, ptr %dot, align 8
  %arrayidx49 = getelementptr inbounds i8, ptr %59, i64 1
  store ptr %arrayidx49, ptr %elm, align 8
  %60 = load ptr, ptr %elm, align 8
  %call50 = call ptr @strchr(ptr noundef %60, i32 noundef 46) #9
  store ptr %call50, ptr %tdot, align 8
  %cmp51 = icmp ne ptr %call50, null
  br i1 %cmp51, label %cond.true53, label %cond.false54

cond.true53:                                      ; preds = %if.end48
  %61 = load ptr, ptr %tdot, align 8
  br label %cond.end56

cond.false54:                                     ; preds = %if.end48
  %62 = load ptr, ptr %elm, align 8
  %call55 = call ptr @strchr(ptr noundef %62, i32 noundef 0) #9
  br label %cond.end56

cond.end56:                                       ; preds = %cond.false54, %cond.true53
  %cond57 = phi ptr [ %61, %cond.true53 ], [ %call55, %cond.false54 ]
  store ptr %cond57, ptr %dot, align 8
  %63 = load ptr, ptr %dot, align 8
  %64 = ptrtoint ptr %63 to i64
  %65 = load ptr, ptr %elm, align 8
  %66 = ptrtoint ptr %65 to i64
  %sub58 = sub i64 %64, %66
  store i64 %sub58, ptr %elen, align 8
  br label %for.inc59

for.inc59:                                        ; preds = %cond.end56
  %67 = load i64, ptr %i, align 8
  %inc60 = add i64 %67, 1
  store i64 %inc60, ptr %i, align 8
  br label %for.cond, !llvm.loop !8

for.end61:                                        ; preds = %if.end47, %for.cond
  %68 = load ptr, ptr %ending_nodep.addr, align 8
  %cmp62 = icmp ne ptr %68, null
  br i1 %cmp62, label %if.then64, label %if.end65

if.then64:                                        ; preds = %for.end61
  %69 = load ptr, ptr %node, align 8
  %70 = load ptr, ptr %ending_nodep.addr, align 8
  store ptr %69, ptr %70, align 8
  br label %if.end65

if.end65:                                         ; preds = %if.then64, %for.end61
  store i32 0, ptr %ret, align 4
  br label %label_return

label_return:                                     ; preds = %if.end65, %if.then46, %if.then34, %if.then27, %if.then22, %if.then
  %71 = load i32, ptr %ret, align 4
  ret i32 %71
}