; Function Attrs: nounwind uwtable
define internal fastcc noundef i32 @ctl_lookup(ptr noundef %tsdn, ptr noundef %starting_node, ptr noundef %name, ptr noundef writeonly %ending_nodep, ptr noundef %mibp, ptr nocapture noundef %depthp) unnamed_addr #0 {
entry:
  %call = tail call ptr @strchr(ptr noundef nonnull dereferenceable(1) %name, i32 noundef 46) #15
  %cmp.not = icmp eq ptr %call, null
  br i1 %cmp.not, label %cond.false, label %cond.end

cond.false:                                       ; preds = %entry
  %strlen = tail call i64 @strlen(ptr nonnull dereferenceable(1) %name)
  %strchr = getelementptr inbounds i8, ptr %name, i64 %strlen
  br label %cond.end

cond.end:                                         ; preds = %entry, %cond.false
  %cond = phi ptr [ %strchr, %cond.false ], [ %call, %entry ]
  %0 = ptrtoint ptr %cond to i64
  %1 = ptrtoint ptr %name to i64
  %sub = sub i64 %0, %1
  %cmp2 = icmp eq i64 %sub, 0
  br i1 %cmp2, label %label_return, label %for.cond.preheader

for.cond.preheader:                               ; preds = %cond.end
  %2 = load i64, ptr %depthp, align 8
  %cmp367.not = icmp eq i64 %2, 0
  br i1 %cmp367.not, label %for.end61, label %do.end5

do.end5:                                          ; preds = %for.cond.preheader, %cond.end56
  %elm.072 = phi ptr [ %arrayidx49, %cond.end56 ], [ %name, %for.cond.preheader ]
  %dot.071 = phi ptr [ %cond57, %cond.end56 ], [ %cond, %for.cond.preheader ]
  %node.070 = phi ptr [ %node.2, %cond.end56 ], [ %starting_node, %for.cond.preheader ]
  %i.069 = phi i64 [ %inc60, %cond.end56 ], [ 0, %for.cond.preheader ]
  %elen.068 = phi i64 [ %sub58, %cond.end56 ], [ %sub, %for.cond.preheader ]
  %children = getelementptr inbounds i8, ptr %node.070, i64 24
  %3 = load ptr, ptr %children, align 8
  %4 = load i8, ptr %3, align 1
  %5 = and i8 %4, 1
  %tobool.not.i = icmp eq i8 %5, 0
  br i1 %tobool.not.i, label %if.else, label %for.cond9.preheader

for.cond9.preheader:                              ; preds = %do.end5
  %nchildren = getelementptr inbounds i8, ptr %node.070, i64 16
  %6 = load i64, ptr %nchildren, align 8
  %cmp1065.not = icmp eq i64 %6, 0
  br i1 %cmp1065.not, label %label_return, label %for.body11

for.body11:                                       ; preds = %for.cond9.preheader, %for.inc
  %j.066 = phi i64 [ %inc, %for.inc ], [ 0, %for.cond9.preheader ]
  %arrayidx.i = getelementptr inbounds %struct.ctl_named_node_s, ptr %3, i64 %j.066
  %name13 = getelementptr inbounds i8, ptr %arrayidx.i, i64 8
  %7 = load ptr, ptr %name13, align 8
  %call14 = tail call i64 @strlen(ptr noundef nonnull dereferenceable(1) %7) #15
  %cmp15 = icmp eq i64 %call14, %elen.068
  br i1 %cmp15, label %land.lhs.true, label %for.inc

land.lhs.true:                                    ; preds = %for.body11
  %call17 = tail call i32 @strncmp(ptr noundef %elm.072, ptr noundef %7, i64 noundef %elen.068) #15
  %cmp18 = icmp eq i32 %call17, 0
  br i1 %cmp18, label %for.end, label %for.inc

for.inc:                                          ; preds = %for.body11, %land.lhs.true
  %inc = add nuw i64 %j.066, 1
  %exitcond.not = icmp eq i64 %inc, %6
  br i1 %exitcond.not, label %label_return, label %for.body11, !llvm.loop !8

for.end:                                          ; preds = %land.lhs.true
  %arrayidx = getelementptr inbounds i64, ptr %mibp, i64 %i.069
  store i64 %j.066, ptr %arrayidx, align 8
  %cmp21 = icmp eq ptr %arrayidx.i, %node.070
  br i1 %cmp21, label %label_return, label %if.end37

if.else:                                          ; preds = %do.end5
  %call24 = tail call i64 @malloc_strtoumax(ptr noundef %elm.072, ptr noundef null, i32 noundef 10) #14
  %cmp25 = icmp eq i64 %call24, -1
  br i1 %cmp25, label %label_return, label %if.end28

if.end28:                                         ; preds = %if.else
  %8 = load ptr, ptr %children, align 8
  %9 = load i8, ptr %8, align 1
  %10 = and i8 %9, 1
  %tobool.not.i43 = icmp eq i8 %10, 0
  %cond.i44 = select i1 %tobool.not.i43, ptr %8, ptr null
  %index31 = getelementptr inbounds i8, ptr %cond.i44, i64 8
  %11 = load ptr, ptr %index31, align 8
  %12 = load i64, ptr %depthp, align 8
  %call32 = tail call ptr %11(ptr noundef %tsdn, ptr noundef %mibp, i64 noundef %12, i64 noundef %call24) #14
  %cmp33 = icmp eq ptr %call32, null
  br i1 %cmp33, label %label_return, label %if.end35

if.end35:                                         ; preds = %if.end28
  %arrayidx36 = getelementptr inbounds i64, ptr %mibp, i64 %i.069
  store i64 %call24, ptr %arrayidx36, align 8
  br label %if.end37

if.end37:                                         ; preds = %for.end, %if.end35
  %node.2 = phi ptr [ %arrayidx.i, %for.end ], [ %call32, %if.end35 ]
  %ctl = getelementptr inbounds i8, ptr %node.2, i64 32
  %13 = load ptr, ptr %ctl, align 8
  %cmp38.not = icmp eq ptr %13, null
  %14 = load i8, ptr %dot.071, align 1
  %cmp40 = icmp eq i8 %14, 0
  br i1 %cmp38.not, label %lor.lhs.false39, label %if.then42

lor.lhs.false39:                                  ; preds = %if.end37
  br i1 %cmp40, label %if.end47, label %if.end48

if.then42:                                        ; preds = %if.end37
  br i1 %cmp40, label %if.end47, label %label_return

if.end47:                                         ; preds = %lor.lhs.false39, %if.then42
  %add = add i64 %i.069, 1
  store i64 %add, ptr %depthp, align 8
  br label %for.end61

if.end48:                                         ; preds = %lor.lhs.false39
  %arrayidx49 = getelementptr inbounds i8, ptr %dot.071, i64 1
  %call50 = tail call ptr @strchr(ptr noundef nonnull dereferenceable(1) %arrayidx49, i32 noundef 46) #15
  %cmp51.not = icmp eq ptr %call50, null
  br i1 %cmp51.not, label %cond.false54, label %cond.end56

cond.false54:                                     ; preds = %if.end48
  %strlen40 = tail call i64 @strlen(ptr nonnull dereferenceable(1) %arrayidx49)
  %strchr41 = getelementptr inbounds i8, ptr %arrayidx49, i64 %strlen40
  br label %cond.end56

cond.end56:                                       ; preds = %if.end48, %cond.false54
  %cond57 = phi ptr [ %strchr41, %cond.false54 ], [ %call50, %if.end48 ]
  %15 = ptrtoint ptr %cond57 to i64
  %16 = ptrtoint ptr %arrayidx49 to i64
  %sub58 = sub i64 %15, %16
  %inc60 = add nuw i64 %i.069, 1
  %17 = load i64, ptr %depthp, align 8
  %cmp3 = icmp ult i64 %inc60, %17
  br i1 %cmp3, label %do.end5, label %for.end61, !llvm.loop !9

for.end61:                                        ; preds = %cond.end56, %for.cond.preheader, %if.end47
  %node.3 = phi ptr [ %node.2, %if.end47 ], [ %starting_node, %for.cond.preheader ], [ %node.2, %cond.end56 ]
  %cmp62.not = icmp eq ptr %ending_nodep, null
  br i1 %cmp62.not, label %label_return, label %if.then64

if.then64:                                        ; preds = %for.end61
  store ptr %node.3, ptr %ending_nodep, align 8
  br label %label_return

label_return:                                     ; preds = %if.end28, %if.else, %for.end, %for.cond9.preheader, %for.inc, %for.end61, %if.then64, %if.then42, %cond.end
  %ret.0 = phi i32 [ 2, %cond.end ], [ 2, %if.then42 ], [ 0, %if.then64 ], [ 0, %for.end61 ], [ 2, %for.inc ], [ 2, %for.cond9.preheader ], [ 2, %for.end ], [ 2, %if.else ], [ 2, %if.end28 ]
  ret i32 %ret.0
}